target datalayout = "e-m:e-p270:32:32-p271:32:32-p272:64:64-i64:64-i128:128-f80:128-n8:16:32:64-S128"
target triple = "x86_64-pc-linux-gnu"

%struct.yyguts_t = type { i32, ptr, ptr, i64, i64, ptr, i8, i32, i32, ptr, i32, i32, i32, i32, i32, ptr, i32, ptr, i32, i32, ptr, i32, i32, ptr, ptr }
%struct.yy_buffer_state = type { ptr, ptr, ptr, i32, i32, i32, i32, i32, i32, i32, i32, i32 }

@.str.13 = private unnamed_addr constant [49 x i8] c"out of dynamic memory in yyensure_buffer_stack()\00", align 1

; Function Attrs: nounwind uwtable
define dso_local ptr @jq_yyrealloc(ptr noundef %0, i64 noundef %1, ptr noundef %2) #0 {
  %4 = alloca ptr, align 8
  %5 = alloca i64, align 8
  %6 = alloca ptr, align 8
  store ptr %0, ptr %4, align 8, !tbaa !9
  store i64 %1, ptr %5, align 8, !tbaa !55
  store ptr %2, ptr %6, align 8, !tbaa !9
  %7 = load ptr, ptr %4, align 8, !tbaa !9
  %8 = load i64, ptr %5, align 8, !tbaa !55
  %9 = call ptr @jv_mem_realloc(ptr noundef %7, i64 noundef %8)
  ret ptr %9
}

; Function Attrs: nounwind uwtable
define dso_local ptr @jq_yyalloc(i64 noundef %0, ptr noundef %1) #0 {
  %3 = alloca i64, align 8
  %4 = alloca ptr, align 8
  store i64 %0, ptr %3, align 8, !tbaa !55
  store ptr %1, ptr %4, align 8, !tbaa !9
  %5 = load i64, ptr %3, align 8, !tbaa !55
  %6 = call ptr @jv_mem_alloc(i64 noundef %5)
  ret ptr %6
}

; Function Attrs: nounwind uwtable
define internal void @jq_yy_load_buffer_state(ptr noundef %0) #0 {
  %2 = alloca ptr, align 8
  %3 = alloca ptr, align 8
  store ptr %0, ptr %2, align 8, !tbaa !9
  call void @llvm.lifetime.start.p0(i64 8, ptr %3) #10
  %4 = load ptr, ptr %2, align 8, !tbaa !9
  store ptr %4, ptr %3, align 8, !tbaa !10
  %5 = load ptr, ptr %3, align 8, !tbaa !10
  %6 = getelementptr inbounds nuw %struct.yyguts_t, ptr %5, i32 0, i32 5
  %7 = load ptr, ptr %6, align 8, !tbaa !26
  %8 = load ptr, ptr %3, align 8, !tbaa !10
  %9 = getelementptr inbounds nuw %struct.yyguts_t, ptr %8, i32 0, i32 3
  %10 = load i64, ptr %9, align 8, !tbaa !27
  %11 = getelementptr inbounds nuw ptr, ptr %7, i64 %10
  %12 = load ptr, ptr %11, align 8, !tbaa !28
  %13 = getelementptr inbounds nuw %struct.yy_buffer_state, ptr %12, i32 0, i32 4
  %14 = load i32, ptr %13, align 4, !tbaa !50
  %15 = load ptr, ptr %3, align 8, !tbaa !10
  %16 = getelementptr inbounds nuw %struct.yyguts_t, ptr %15, i32 0, i32 7
  store i32 %14, ptr %16, align 4, !tbaa !51
  %17 = load ptr, ptr %3, align 8, !tbaa !10
  %18 = getelementptr inbounds nuw %struct.yyguts_t, ptr %17, i32 0, i32 5
  %19 = load ptr, ptr %18, align 8, !tbaa !26
  %20 = load ptr, ptr %3, align 8, !tbaa !10
  %21 = getelementptr inbounds nuw %struct.yyguts_t, ptr %20, i32 0, i32 3
  %22 = load i64, ptr %21, align 8, !tbaa !27
  %23 = getelementptr inbounds nuw ptr, ptr %19, i64 %22
  %24 = load ptr, ptr %23, align 8, !tbaa !28
  %25 = getelementptr inbounds nuw %struct.yy_buffer_state, ptr %24, i32 0, i32 2
  %26 = load ptr, ptr %25, align 8, !tbaa !59
  %27 = load ptr, ptr %3, align 8, !tbaa !10
  %28 = getelementptr inbounds nuw %struct.yyguts_t, ptr %27, i32 0, i32 9
  store ptr %26, ptr %28, align 8, !tbaa !30
  %29 = load ptr, ptr %3, align 8, !tbaa !10
  %30 = getelementptr inbounds nuw %struct.yyguts_t, ptr %29, i32 0, i32 20
  store ptr %26, ptr %30, align 8, !tbaa !42
  %31 = load ptr, ptr %3, align 8, !tbaa !10
  %32 = getelementptr inbounds nuw %struct.yyguts_t, ptr %31, i32 0, i32 5
  %33 = load ptr, ptr %32, align 8, !tbaa !26
  %34 = load ptr, ptr %3, align 8, !tbaa !10
  %35 = getelementptr inbounds nuw %struct.yyguts_t, ptr %34, i32 0, i32 3
  %36 = load i64, ptr %35, align 8, !tbaa !27
  %37 = getelementptr inbounds nuw ptr, ptr %33, i64 %36
  %38 = load ptr, ptr %37, align 8, !tbaa !28
  %39 = getelementptr inbounds nuw %struct.yy_buffer_state, ptr %38, i32 0, i32 0
  %40 = load ptr, ptr %39, align 8, !tbaa !52
  %41 = load ptr, ptr %3, align 8, !tbaa !10
  %42 = getelementptr inbounds nuw %struct.yyguts_t, ptr %41, i32 0, i32 1
  store ptr %40, ptr %42, align 8, !tbaa !23
  %43 = load ptr, ptr %3, align 8, !tbaa !10
  %44 = getelementptr inbounds nuw %struct.yyguts_t, ptr %43, i32 0, i32 9
  %45 = load ptr, ptr %44, align 8, !tbaa !30
  %46 = load i8, ptr %45, align 1, !tbaa !33
  %47 = load ptr, ptr %3, align 8, !tbaa !10
  %48 = getelementptr inbounds nuw %struct.yyguts_t, ptr %47, i32 0, i32 6
  store i8 %46, ptr %48, align 8, !tbaa !32
  call void @llvm.lifetime.end.p0(i64 8, ptr %3) #10
  ret void
}

; Function Attrs: nounwind uwtable
define internal void @jq_yyensure_buffer_stack(ptr noundef %0) #0 {
  %2 = alloca ptr, align 8
  %3 = alloca i64, align 8
  %4 = alloca ptr, align 8
  %5 = alloca i32, align 4
  %6 = alloca i64, align 8
  store ptr %0, ptr %2, align 8, !tbaa !9
  call void @llvm.lifetime.start.p0(i64 8, ptr %3) #10
  call void @llvm.lifetime.start.p0(i64 8, ptr %4) #10
  %7 = load ptr, ptr %2, align 8, !tbaa !9
  store ptr %7, ptr %4, align 8, !tbaa !10
  %8 = load ptr, ptr %4, align 8, !tbaa !10
  %9 = getelementptr inbounds nuw %struct.yyguts_t, ptr %8, i32 0, i32 5
  %10 = load ptr, ptr %9, align 8, !tbaa !26
  %11 = icmp ne ptr %10, null
  br i1 %11, label %36, label %12

12:                                               ; preds = %1
  store i64 1, ptr %3, align 8, !tbaa !55
  %13 = load i64, ptr %3, align 8, !tbaa !55
  %14 = mul i64 %13, 8
  %15 = load ptr, ptr %2, align 8, !tbaa !9
  %16 = call ptr @jq_yyalloc(i64 noundef %14, ptr noundef %15)
  %17 = load ptr, ptr %4, align 8, !tbaa !10
  %18 = getelementptr inbounds nuw %struct.yyguts_t, ptr %17, i32 0, i32 5
  store ptr %16, ptr %18, align 8, !tbaa !26
  %19 = load ptr, ptr %4, align 8, !tbaa !10
  %20 = getelementptr inbounds nuw %struct.yyguts_t, ptr %19, i32 0, i32 5
  %21 = load ptr, ptr %20, align 8, !tbaa !26
  %22 = icmp ne ptr %21, null
  br i1 %22, label %25, label %23

23:                                               ; preds = %12
  %24 = load ptr, ptr %2, align 8, !tbaa !9
  call void @yy_fatal_error(ptr noundef @.str.13, ptr noundef %24) #11
  unreachable

25:                                               ; preds = %12
  %26 = load ptr, ptr %4, align 8, !tbaa !10
  %27 = getelementptr inbounds nuw %struct.yyguts_t, ptr %26, i32 0, i32 5
  %28 = load ptr, ptr %27, align 8, !tbaa !26
  %29 = load i64, ptr %3, align 8, !tbaa !55
  %30 = mul i64 %29, 8
  call void @llvm.memset.p0.i64(ptr align 8 %28, i8 0, i64 %30, i1 false)
  %31 = load i64, ptr %3, align 8, !tbaa !55
  %32 = load ptr, ptr %4, align 8, !tbaa !10
  %33 = getelementptr inbounds nuw %struct.yyguts_t, ptr %32, i32 0, i32 4
  store i64 %31, ptr %33, align 8, !tbaa !56
  %34 = load ptr, ptr %4, align 8, !tbaa !10
  %35 = getelementptr inbounds nuw %struct.yyguts_t, ptr %34, i32 0, i32 3
  store i64 0, ptr %35, align 8, !tbaa !27
  store i32 1, ptr %5, align 4
  br label %80

36:                                               ; preds = %1
  %37 = load ptr, ptr %4, align 8, !tbaa !10
  %38 = getelementptr inbounds nuw %struct.yyguts_t, ptr %37, i32 0, i32 3
  %39 = load i64, ptr %38, align 8, !tbaa !27
  %40 = load ptr, ptr %4, align 8, !tbaa !10
  %41 = getelementptr inbounds nuw %struct.yyguts_t, ptr %40, i32 0, i32 4
  %42 = load i64, ptr %41, align 8, !tbaa !56
  %43 = sub i64 %42, 1
  %44 = icmp uge i64 %39, %43
  br i1 %44, label %45, label %79

45:                                               ; preds = %36
  call void @llvm.lifetime.start.p0(i64 8, ptr %6) #10
  store i64 8, ptr %6, align 8, !tbaa !55
  %46 = load ptr, ptr %4, align 8, !tbaa !10
  %47 = getelementptr inbounds nuw %struct.yyguts_t, ptr %46, i32 0, i32 4
  %48 = load i64, ptr %47, align 8, !tbaa !56
  %49 = load i64, ptr %6, align 8, !tbaa !55
  %50 = add i64 %48, %49
  store i64 %50, ptr %3, align 8, !tbaa !55
  %51 = load ptr, ptr %4, align 8, !tbaa !10
  %52 = getelementptr inbounds nuw %struct.yyguts_t, ptr %51, i32 0, i32 5
  %53 = load ptr, ptr %52, align 8, !tbaa !26
  %54 = load i64, ptr %3, align 8, !tbaa !55
  %55 = mul i64 %54, 8
  %56 = load ptr, ptr %2, align 8, !tbaa !9
  %57 = call ptr @jq_yyrealloc(ptr noundef %53, i64 noundef %55, ptr noundef %56)
  %58 = load ptr, ptr %4, align 8, !tbaa !10
  %59 = getelementptr inbounds nuw %struct.yyguts_t, ptr %58, i32 0, i32 5
  store ptr %57, ptr %59, align 8, !tbaa !26
  %60 = load ptr, ptr %4, align 8, !tbaa !10
  %61 = getelementptr inbounds nuw %struct.yyguts_t, ptr %60, i32 0, i32 5
  %62 = load ptr, ptr %61, align 8, !tbaa !26
  %63 = icmp ne ptr %62, null
  br i1 %63, label %66, label %64

64:                                               ; preds = %45
  %65 = load ptr, ptr %2, align 8, !tbaa !9
  call void @yy_fatal_error(ptr noundef @.str.13, ptr noundef %65) #11
  unreachable

66:                                               ; preds = %45
  %67 = load ptr, ptr %4, align 8, !tbaa !10
  %68 = getelementptr inbounds nuw %struct.yyguts_t, ptr %67, i32 0, i32 5
  %69 = load ptr, ptr %68, align 8, !tbaa !26
  %70 = load ptr, ptr %4, align 8, !tbaa !10
  %71 = getelementptr inbounds nuw %struct.yyguts_t, ptr %70, i32 0, i32 4
  %72 = load i64, ptr %71, align 8, !tbaa !56
  %73 = getelementptr inbounds nuw ptr, ptr %69, i64 %72
  %74 = load i64, ptr %6, align 8, !tbaa !55
  %75 = mul i64 %74, 8
  call void @llvm.memset.p0.i64(ptr align 8 %73, i8 0, i64 %75, i1 false)
  %76 = load i64, ptr %3, align 8, !tbaa !55
  %77 = load ptr, ptr %4, align 8, !tbaa !10
  %78 = getelementptr inbounds nuw %struct.yyguts_t, ptr %77, i32 0, i32 4
  store i64 %76, ptr %78, align 8, !tbaa !56
  call void @llvm.lifetime.end.p0(i64 8, ptr %6) #10
  br label %79

79:                                               ; preds = %66, %36
  store i32 0, ptr %5, align 4
  br label %80

80:                                               ; preds = %79, %25
  call void @llvm.lifetime.end.p0(i64 8, ptr %4) #10
  call void @llvm.lifetime.end.p0(i64 8, ptr %3) #10
  %81 = load i32, ptr %5, align 4
  switch i32 %81, label %83 [
    i32 0, label %82
    i32 1, label %82
  ]

82:                                               ; preds = %80, %80
  ret void

83:                                               ; preds = %80
  unreachable
}

; Function Attrs: nounwind uwtable
define dso_local void @jq_yy_switch_to_buffer(ptr noundef %0, ptr noundef %1) #0 {
  %3 = alloca ptr, align 8
  %4 = alloca ptr, align 8
  %5 = alloca ptr, align 8
  %6 = alloca i32, align 4
  store ptr %0, ptr %3, align 8, !tbaa !28
  store ptr %1, ptr %4, align 8, !tbaa !9
  call void @llvm.lifetime.start.p0(i64 8, ptr %5) #10
  %7 = load ptr, ptr %4, align 8, !tbaa !9
  store ptr %7, ptr %5, align 8, !tbaa !10
  %8 = load ptr, ptr %4, align 8, !tbaa !9
  call void @jq_yyensure_buffer_stack(ptr noundef %8)
  %9 = load ptr, ptr %5, align 8, !tbaa !10
  %10 = getelementptr inbounds nuw %struct.yyguts_t, ptr %9, i32 0, i32 5
  %11 = load ptr, ptr %10, align 8, !tbaa !26
  %12 = icmp ne ptr %11, null
  br i1 %12, label %13, label %22

13:                                               ; preds = %2
  %14 = load ptr, ptr %5, align 8, !tbaa !10
  %15 = getelementptr inbounds nuw %struct.yyguts_t, ptr %14, i32 0, i32 5
  %16 = load ptr, ptr %15, align 8, !tbaa !26
  %17 = load ptr, ptr %5, align 8, !tbaa !10
  %18 = getelementptr inbounds nuw %struct.yyguts_t, ptr %17, i32 0, i32 3
  %19 = load i64, ptr %18, align 8, !tbaa !27
  %20 = getelementptr inbounds nuw ptr, ptr %16, i64 %19
  %21 = load ptr, ptr %20, align 8, !tbaa !28
  br label %23

22:                                               ; preds = %2
  br label %23

23:                                               ; preds = %22, %13
  %24 = phi ptr [ %21, %13 ], [ null, %22 ]
  %25 = load ptr, ptr %3, align 8, !tbaa !28
  %26 = icmp eq ptr %24, %25
  br i1 %26, label %27, label %28

27:                                               ; preds = %23
  store i32 1, ptr %6, align 4
  br label %87

28:                                               ; preds = %23
  %29 = load ptr, ptr %5, align 8, !tbaa !10
  %30 = getelementptr inbounds nuw %struct.yyguts_t, ptr %29, i32 0, i32 5
  %31 = load ptr, ptr %30, align 8, !tbaa !26
  %32 = icmp ne ptr %31, null
  br i1 %32, label %33, label %43

33:                                               ; preds = %28
  %34 = load ptr, ptr %5, align 8, !tbaa !10
  %35 = getelementptr inbounds nuw %struct.yyguts_t, ptr %34, i32 0, i32 5
  %36 = load ptr, ptr %35, align 8, !tbaa !26
  %37 = load ptr, ptr %5, align 8, !tbaa !10
  %38 = getelementptr inbounds nuw %struct.yyguts_t, ptr %37, i32 0, i32 3
  %39 = load i64, ptr %38, align 8, !tbaa !27
  %40 = getelementptr inbounds nuw ptr, ptr %36, i64 %39
  %41 = load ptr, ptr %40, align 8, !tbaa !28
  %42 = icmp ne ptr %41, null
  br i1 %42, label %44, label %75

43:                                               ; preds = %28
  br i1 false, label %44, label %75

44:                                               ; preds = %43, %33
  %45 = load ptr, ptr %5, align 8, !tbaa !10
  %46 = getelementptr inbounds nuw %struct.yyguts_t, ptr %45, i32 0, i32 6
  %47 = load i8, ptr %46, align 8, !tbaa !32
  %48 = load ptr, ptr %5, align 8, !tbaa !10
  %49 = getelementptr inbounds nuw %struct.yyguts_t, ptr %48, i32 0, i32 9
  %50 = load ptr, ptr %49, align 8, !tbaa !30
  store i8 %47, ptr %50, align 1, !tbaa !33
  %51 = load ptr, ptr %5, align 8, !tbaa !10
  %52 = getelementptr inbounds nuw %struct.yyguts_t, ptr %51, i32 0, i32 9
  %53 = load ptr, ptr %52, align 8, !tbaa !30
  %54 = load ptr, ptr %5, align 8, !tbaa !10
  %55 = getelementptr inbounds nuw %struct.yyguts_t, ptr %54, i32 0, i32 5
  %56 = load ptr, ptr %55, align 8, !tbaa !26
  %57 = load ptr, ptr %5, align 8, !tbaa !10
  %58 = getelementptr inbounds nuw %struct.yyguts_t, ptr %57, i32 0, i32 3
  %59 = load i64, ptr %58, align 8, !tbaa !27
  %60 = getelementptr inbounds nuw ptr, ptr %56, i64 %59
  %61 = load ptr, ptr %60, align 8, !tbaa !28
  %62 = getelementptr inbounds nuw %struct.yy_buffer_state, ptr %61, i32 0, i32 2
  store ptr %53, ptr %62, align 8, !tbaa !59
  %63 = load ptr, ptr %5, align 8, !tbaa !10
  %64 = getelementptr inbounds nuw %struct.yyguts_t, ptr %63, i32 0, i32 7
  %65 = load i32, ptr %64, align 4, !tbaa !51
  %66 = load ptr, ptr %5, align 8, !tbaa !10
  %67 = getelementptr inbounds nuw %struct.yyguts_t, ptr %66, i32 0, i32 5
  %68 = load ptr, ptr %67, align 8, !tbaa !26
  %69 = load ptr, ptr %5, align 8, !tbaa !10
  %70 = getelementptr inbounds nuw %struct.yyguts_t, ptr %69, i32 0, i32 3
  %71 = load i64, ptr %70, align 8, !tbaa !27
  %72 = getelementptr inbounds nuw ptr, ptr %68, i64 %71
  %73 = load ptr, ptr %72, align 8, !tbaa !28
  %74 = getelementptr inbounds nuw %struct.yy_buffer_state, ptr %73, i32 0, i32 4
  store i32 %65, ptr %74, align 4, !tbaa !50
  br label %75

75:                                               ; preds = %44, %43, %33
  %76 = load ptr, ptr %3, align 8, !tbaa !28
  %77 = load ptr, ptr %5, align 8, !tbaa !10
  %78 = getelementptr inbounds nuw %struct.yyguts_t, ptr %77, i32 0, i32 5
  %79 = load ptr, ptr %78, align 8, !tbaa !26
  %80 = load ptr, ptr %5, align 8, !tbaa !10
  %81 = getelementptr inbounds nuw %struct.yyguts_t, ptr %80, i32 0, i32 3
  %82 = load i64, ptr %81, align 8, !tbaa !27
  %83 = getelementptr inbounds nuw ptr, ptr %79, i64 %82
  store ptr %76, ptr %83, align 8, !tbaa !28
  %84 = load ptr, ptr %4, align 8, !tbaa !9
  call void @jq_yy_load_buffer_state(ptr noundef %84)
  %85 = load ptr, ptr %5, align 8, !tbaa !10
  %86 = getelementptr inbounds nuw %struct.yyguts_t, ptr %85, i32 0, i32 12
  store i32 1, ptr %86, align 8, !tbaa !54
  store i32 0, ptr %6, align 4
  br label %87

87:                                               ; preds = %75, %27
  call void @llvm.lifetime.end.p0(i64 8, ptr %5) #10
  %88 = load i32, ptr %6, align 4
  switch i32 %88, label %90 [
    i32 0, label %89
    i32 1, label %89
  ]

89:                                               ; preds = %87, %87
  ret void

90:                                               ; preds = %87
  unreachable
}