; Function Attrs: nounwind uwtable
define dso_local void @jq_yy_switch_to_buffer(ptr noundef %0, ptr noundef captures(none) %1) local_unnamed_addr #0 {
  %3 = getelementptr inbounds nuw i8, ptr %1, i64 40
  %4 = load ptr, ptr %3, align 8, !tbaa !22
  %.not.i = icmp eq ptr %4, null
  br i1 %.not.i, label %5, label %11

5:                                                ; preds = %2
  %6 = tail call ptr @jv_mem_alloc(i64 noundef 8) #17
  store ptr %6, ptr %3, align 8, !tbaa !22
  %.not28.i = icmp eq ptr %6, null
  br i1 %.not28.i, label %7, label %8

7:                                                ; preds = %5
  tail call fastcc void @yy_fatal_error(ptr noundef nonnull @.str.13) #18
  unreachable

8:                                                ; preds = %5
  store i64 0, ptr %6, align 8
  %9 = getelementptr inbounds nuw i8, ptr %1, i64 32
  store i64 1, ptr %9, align 8, !tbaa !26
  %10 = getelementptr inbounds nuw i8, ptr %1, i64 24
  store i64 0, ptr %10, align 8, !tbaa !23
  br label %jq_yyensure_buffer_stack.exit

11:                                               ; preds = %2
  %12 = getelementptr inbounds nuw i8, ptr %1, i64 24
  %13 = load i64, ptr %12, align 8, !tbaa !23
  %14 = getelementptr inbounds nuw i8, ptr %1, i64 32
  %15 = load i64, ptr %14, align 8, !tbaa !26
  %16 = add i64 %15, -1
  %.not29.i = icmp ult i64 %13, %16
  br i1 %.not29.i, label %jq_yyensure_buffer_stack.exit, label %17

17:                                               ; preds = %11
  %18 = add i64 %15, 8
  %19 = shl i64 %18, 3
  %20 = tail call ptr @jv_mem_realloc(ptr noundef nonnull %4, i64 noundef %19) #17
  store ptr %20, ptr %3, align 8, !tbaa !22
  %.not30.i = icmp eq ptr %20, null
  br i1 %.not30.i, label %21, label %22

21:                                               ; preds = %17
  tail call fastcc void @yy_fatal_error(ptr noundef nonnull @.str.13) #18
  unreachable

22:                                               ; preds = %17
  %23 = load i64, ptr %14, align 8, !tbaa !26
  %24 = getelementptr inbounds nuw ptr, ptr %20, i64 %23
  tail call void @llvm.memset.p0.i64(ptr noundef nonnull align 8 dereferenceable(64) %24, i8 0, i64 64, i1 false)
  store i64 %18, ptr %14, align 8, !tbaa !26
  br label %jq_yyensure_buffer_stack.exit

jq_yyensure_buffer_stack.exit:                    ; preds = %8, %11, %22
  %25 = load ptr, ptr %3, align 8, !tbaa !22
  %.not = icmp eq ptr %25, null
  br i1 %.not, label %26, label %.thread

26:                                               ; preds = %jq_yyensure_buffer_stack.exit
  %27 = icmp eq ptr %0, null
  tail call void @llvm.assume(i1 %27)
  br label %64

.thread:                                          ; preds = %jq_yyensure_buffer_stack.exit
  %28 = getelementptr inbounds nuw i8, ptr %1, i64 24
  %29 = load i64, ptr %28, align 8, !tbaa !23
  %30 = getelementptr inbounds nuw ptr, ptr %25, i64 %29
  %31 = load ptr, ptr %30, align 8, !tbaa !24
  %32 = icmp eq ptr %31, %0
  br i1 %32, label %64, label %33

33:                                               ; preds = %.thread
  %.not25 = icmp eq ptr %31, null
  br i1 %.not25, label %48, label %34

34:                                               ; preds = %33
  %35 = getelementptr inbounds nuw i8, ptr %1, i64 48
  %36 = load i8, ptr %35, align 8, !tbaa !38
  %37 = getelementptr inbounds nuw i8, ptr %1, i64 64
  %38 = load ptr, ptr %37, align 8, !tbaa !34
  store i8 %36, ptr %38, align 1, !tbaa !37
  %39 = load ptr, ptr %37, align 8, !tbaa !34
  %40 = load ptr, ptr %3, align 8, !tbaa !22
  %41 = load i64, ptr %28, align 8, !tbaa !23
  %42 = getelementptr inbounds nuw ptr, ptr %40, i64 %41
  %43 = load ptr, ptr %42, align 8, !tbaa !24
  %44 = getelementptr inbounds nuw i8, ptr %43, i64 16
  store ptr %39, ptr %44, align 8, !tbaa !33
  %45 = getelementptr inbounds nuw i8, ptr %1, i64 52
  %46 = load i32, ptr %45, align 4, !tbaa !32
  %47 = getelementptr inbounds nuw i8, ptr %43, i64 28
  store i32 %46, ptr %47, align 4, !tbaa !31
  br label %48

48:                                               ; preds = %34, %33
  %49 = phi i64 [ %41, %34 ], [ %29, %33 ]
  %50 = phi ptr [ %40, %34 ], [ %25, %33 ]
  %51 = getelementptr inbounds nuw ptr, ptr %50, i64 %49
  store ptr %0, ptr %51, align 8, !tbaa !24
  %52 = getelementptr inbounds nuw i8, ptr %0, i64 28
  %53 = load i32, ptr %52, align 4, !tbaa !31
  %54 = getelementptr inbounds nuw i8, ptr %1, i64 52
  store i32 %53, ptr %54, align 4, !tbaa !32
  %55 = getelementptr inbounds nuw i8, ptr %0, i64 16
  %56 = load ptr, ptr %55, align 8, !tbaa !33
  %57 = getelementptr inbounds nuw i8, ptr %1, i64 64
  store ptr %56, ptr %57, align 8, !tbaa !34
  %58 = getelementptr inbounds nuw i8, ptr %1, i64 128
  store ptr %56, ptr %58, align 8, !tbaa !35
  %59 = load ptr, ptr %0, align 8, !tbaa !36
  %60 = getelementptr inbounds nuw i8, ptr %1, i64 8
  store ptr %59, ptr %60, align 8, !tbaa !19
  %61 = load i8, ptr %56, align 1, !tbaa !37
  %62 = getelementptr inbounds nuw i8, ptr %1, i64 48
  store i8 %61, ptr %62, align 8, !tbaa !38
  %63 = getelementptr inbounds nuw i8, ptr %1, i64 80
  store i32 1, ptr %63, align 8, !tbaa !62
  br label %64

64:                                               ; preds = %26, %.thread, %48
  ret void
}